; ModuleID = '41/880.cpp'
source_filename = "41/880.cpp"
target datalayout = "e-m:e-p270:32:32-p271:32:32-p272:64:64-i64:64-f80:128-n8:16:32:64-S128"
target triple = "x86_64-pc-linux-gnu"

%"class.std::ios_base::Init" = type { i8 }
%"class.std::basic_ostream" = type { i32 (...)**, %"class.std::basic_ios" }
%"class.std::basic_ios" = type { %"class.std::ios_base", %"class.std::basic_ostream"*, i8, i8, %"class.std::basic_streambuf"*, %"class.std::ctype"*, %"class.std::num_put"*, %"class.std::num_get"* }
%"class.std::ios_base" = type { i32 (...)**, i64, i64, i32, i32, i32, %"struct.std::ios_base::_Callback_list"*, %"struct.std::ios_base::_Words", [8 x %"struct.std::ios_base::_Words"], i32, %"struct.std::ios_base::_Words"*, %"class.std::locale" }
%"struct.std::ios_base::_Callback_list" = type { %"struct.std::ios_base::_Callback_list"*, void (i32, %"class.std::ios_base"*, i32)*, i32, i32 }
%"struct.std::ios_base::_Words" = type { i8*, i64 }
%"class.std::locale" = type { %"class.std::locale::_Impl"* }
%"class.std::locale::_Impl" = type { i32, %"class.std::locale::facet"**, i64, %"class.std::locale::facet"**, i8** }
%"class.std::locale::facet" = type <{ i32 (...)**, i32, [4 x i8] }>
%"class.std::basic_streambuf" = type { i32 (...)**, i8*, i8*, i8*, i8*, i8*, i8*, %"class.std::locale" }
%"class.std::ctype" = type <{ %"class.std::locale::facet.base", [4 x i8], %struct.__locale_struct*, i8, [7 x i8], i32*, i32*, i16*, i8, [256 x i8], [256 x i8], i8, [6 x i8] }>
%"class.std::locale::facet.base" = type <{ i32 (...)**, i32 }>
%struct.__locale_struct = type { [13 x %struct.__locale_data*], i16*, i32*, i32*, [13 x i8*] }
%struct.__locale_data = type opaque
%"class.std::num_put" = type { %"class.std::locale::facet.base", [4 x i8] }
%"class.std::num_get" = type { %"class.std::locale::facet.base", [4 x i8] }

@_ZStL8__ioinit = internal global %"class.std::ios_base::Init" zeroinitializer, align 1
@__dso_handle = external hidden global i8
@_ZSt4cout = external dso_local global %"class.std::basic_ostream", align 8
@.str = private unnamed_addr constant [2 x i8] c" \00", align 1
@llvm.global_ctors = appending global [1 x { i32, void ()*, i8* }] [{ i32, void ()*, i8* } { i32 65535, void ()* @_GLOBAL__sub_I_880.cpp, i8* null }]

; Function Attrs: noinline uwtable
define internal void @__cxx_global_var_init() #0 section ".text.startup" {
  call void @_ZNSt8ios_base4InitC1Ev(%"class.std::ios_base::Init"* @_ZStL8__ioinit)
  %1 = call i32 @__cxa_atexit(void (i8*)* bitcast (void (%"class.std::ios_base::Init"*)* @_ZNSt8ios_base4InitD1Ev to void (i8*)*), i8* getelementptr inbounds (%"class.std::ios_base::Init", %"class.std::ios_base::Init"* @_ZStL8__ioinit, i32 0, i32 0), i8* @__dso_handle) #3
  ret void
}

declare dso_local void @_ZNSt8ios_base4InitC1Ev(%"class.std::ios_base::Init"*) unnamed_addr #1

; Function Attrs: nounwind
declare dso_local void @_ZNSt8ios_base4InitD1Ev(%"class.std::ios_base::Init"*) unnamed_addr #2

; Function Attrs: nounwind
declare dso_local i32 @__cxa_atexit(void (i8*)*, i8*, i8*) #3

; Function Attrs: noinline norecurse uwtable
define dso_local i32 @main() #4 {
  %1 = alloca i32, align 4
  %2 = alloca i32, align 4
  %3 = alloca i32, align 4
  %4 = alloca i32, align 4
  %5 = alloca i32, align 4
  %6 = alloca i32, align 4
  store i32 0, i32* %1, align 4
  store i32 0, i32* %2, align 4
  br label %7

7:                                                ; preds = %150, %0
  %8 = load i32, i32* %2, align 4
  %9 = icmp slt i32 %8, 5
  br i1 %9, label %10, label %153

10:                                               ; preds = %7
  store i32 0, i32* %3, align 4
  br label %11

11:                                               ; preds = %146, %10
  %12 = load i32, i32* %3, align 4
  %13 = icmp slt i32 %12, 5
  br i1 %13, label %14, label %149

14:                                               ; preds = %11
  store i32 0, i32* %4, align 4
  br label %15

15:                                               ; preds = %142, %14
  %16 = load i32, i32* %4, align 4
  %17 = icmp slt i32 %16, 5
  br i1 %17, label %18, label %145

18:                                               ; preds = %15
  store i32 0, i32* %5, align 4
  br label %19

19:                                               ; preds = %138, %18
  %20 = load i32, i32* %5, align 4
  %21 = icmp slt i32 %20, 5
  br i1 %21, label %22, label %141

22:                                               ; preds = %19
  store i32 0, i32* %6, align 4
  br label %23

23:                                               ; preds = %134, %22
  %24 = load i32, i32* %6, align 4
  %25 = icmp slt i32 %24, 5
  br i1 %25, label %26, label %137

26:                                               ; preds = %23
  %27 = load i32, i32* %2, align 4
  %28 = load i32, i32* %3, align 4
  %29 = icmp ne i32 %27, %28
  br i1 %29, label %30, label %133

30:                                               ; preds = %26
  %31 = load i32, i32* %2, align 4
  %32 = load i32, i32* %4, align 4
  %33 = icmp ne i32 %31, %32
  br i1 %33, label %34, label %133

34:                                               ; preds = %30
  %35 = load i32, i32* %2, align 4
  %36 = load i32, i32* %5, align 4
  %37 = icmp ne i32 %35, %36
  br i1 %37, label %38, label %133

38:                                               ; preds = %34
  %39 = load i32, i32* %2, align 4
  %40 = load i32, i32* %6, align 4
  %41 = icmp ne i32 %39, %40
  br i1 %41, label %42, label %133

42:                                               ; preds = %38
  %43 = load i32, i32* %3, align 4
  %44 = load i32, i32* %4, align 4
  %45 = icmp ne i32 %43, %44
  br i1 %45, label %46, label %133

46:                                               ; preds = %42
  %47 = load i32, i32* %3, align 4
  %48 = load i32, i32* %5, align 4
  %49 = icmp ne i32 %47, %48
  br i1 %49, label %50, label %133

50:                                               ; preds = %46
  %51 = load i32, i32* %3, align 4
  %52 = load i32, i32* %6, align 4
  %53 = icmp ne i32 %51, %52
  br i1 %53, label %54, label %133

54:                                               ; preds = %50
  %55 = load i32, i32* %4, align 4
  %56 = load i32, i32* %5, align 4
  %57 = icmp ne i32 %55, %56
  br i1 %57, label %58, label %133

58:                                               ; preds = %54
  %59 = load i32, i32* %4, align 4
  %60 = load i32, i32* %6, align 4
  %61 = icmp ne i32 %59, %60
  br i1 %61, label %62, label %133

62:                                               ; preds = %58
  %63 = load i32, i32* %5, align 4
  %64 = load i32, i32* %6, align 4
  %65 = icmp ne i32 %63, %64
  br i1 %65, label %66, label %133

66:                                               ; preds = %62
  %67 = load i32, i32* %6, align 4
  %68 = icmp ne i32 %67, 1
  br i1 %68, label %69, label %133

69:                                               ; preds = %66
  %70 = load i32, i32* %6, align 4
  %71 = icmp ne i32 %70, 2
  br i1 %71, label %72, label %133

72:                                               ; preds = %69
  %73 = load i32, i32* %2, align 4
  %74 = icmp slt i32 %73, 2
  %75 = zext i1 %74 to i32
  %76 = load i32, i32* %6, align 4
  %77 = icmp eq i32 %76, 0
  %78 = zext i1 %77 to i32
  %79 = icmp eq i32 %75, %78
  br i1 %79, label %80, label %132

80:                                               ; preds = %72
  %81 = load i32, i32* %3, align 4
  %82 = icmp slt i32 %81, 2
  %83 = zext i1 %82 to i32
  %84 = load i32, i32* %3, align 4
  %85 = icmp eq i32 %84, 1
  %86 = zext i1 %85 to i32
  %87 = icmp eq i32 %83, %86
  br i1 %87, label %88, label %132

88:                                               ; preds = %80
  %89 = load i32, i32* %4, align 4
  %90 = icmp slt i32 %89, 2
  %91 = zext i1 %90 to i32
  %92 = load i32, i32* %2, align 4
  %93 = icmp eq i32 %92, 4
  %94 = zext i1 %93 to i32
  %95 = icmp eq i32 %91, %94
  br i1 %95, label %96, label %132

96:                                               ; preds = %88
  %97 = load i32, i32* %5, align 4
  %98 = icmp slt i32 %97, 2
  %99 = zext i1 %98 to i32
  %100 = load i32, i32* %4, align 4
  %101 = icmp ne i32 %100, 0
  %102 = zext i1 %101 to i32
  %103 = icmp eq i32 %99, %102
  br i1 %103, label %104, label %132

104:                                              ; preds = %96
  %105 = load i32, i32* %6, align 4
  %106 = icmp slt i32 %105, 2
  %107 = zext i1 %106 to i32
  %108 = load i32, i32* %5, align 4
  %109 = icmp eq i32 %108, 0
  %110 = zext i1 %109 to i32
  %111 = icmp eq i32 %107, %110
  br i1 %111, label %112, label %132

112:                                              ; preds = %104
  %113 = load i32, i32* %2, align 4
  %114 = add nsw i32 %113, 1
  %115 = call dereferenceable(272) %"class.std::basic_ostream"* @_ZNSolsEi(%"class.std::basic_ostream"* @_ZSt4cout, i32 %114)
  %116 = call dereferenceable(272) %"class.std::basic_ostream"* @_ZStlsISt11char_traitsIcEERSt13basic_ostreamIcT_ES5_PKc(%"class.std::basic_ostream"* dereferenceable(272) %115, i8* getelementptr inbounds ([2 x i8], [2 x i8]* @.str, i64 0, i64 0))
  %117 = load i32, i32* %3, align 4
  %118 = add nsw i32 %117, 1
  %119 = call dereferenceable(272) %"class.std::basic_ostream"* @_ZNSolsEi(%"class.std::basic_ostream"* %116, i32 %118)
  %120 = call dereferenceable(272) %"class.std::basic_ostream"* @_ZStlsISt11char_traitsIcEERSt13basic_ostreamIcT_ES5_PKc(%"class.std::basic_ostream"* dereferenceable(272) %119, i8* getelementptr inbounds ([2 x i8], [2 x i8]* @.str, i64 0, i64 0))
  %121 = load i32, i32* %4, align 4
  %122 = add nsw i32 %121, 1
  %123 = call dereferenceable(272) %"class.std::basic_ostream"* @_ZNSolsEi(%"class.std::basic_ostream"* %120, i32 %122)
  %124 = call dereferenceable(272) %"class.std::basic_ostream"* @_ZStlsISt11char_traitsIcEERSt13basic_ostreamIcT_ES5_PKc(%"class.std::basic_ostream"* dereferenceable(272) %123, i8* getelementptr inbounds ([2 x i8], [2 x i8]* @.str, i64 0, i64 0))
  %125 = load i32, i32* %5, align 4
  %126 = add nsw i32 %125, 1
  %127 = call dereferenceable(272) %"class.std::basic_ostream"* @_ZNSolsEi(%"class.std::basic_ostream"* %124, i32 %126)
  %128 = call dereferenceable(272) %"class.std::basic_ostream"* @_ZStlsISt11char_traitsIcEERSt13basic_ostreamIcT_ES5_PKc(%"class.std::basic_ostream"* dereferenceable(272) %127, i8* getelementptr inbounds ([2 x i8], [2 x i8]* @.str, i64 0, i64 0))
  %129 = load i32, i32* %6, align 4
  %130 = add nsw i32 %129, 1
  %131 = call dereferenceable(272) %"class.std::basic_ostream"* @_ZNSolsEi(%"class.std::basic_ostream"* %128, i32 %130)
  br label %132

132:                                              ; preds = %112, %104, %96, %88, %80, %72
  br label %133

133:                                              ; preds = %132, %69, %66, %62, %58, %54, %50, %46, %42, %38, %34, %30, %26
  br label %134

134:                                              ; preds = %133
  %135 = load i32, i32* %6, align 4
  %136 = add nsw i32 %135, 1
  store i32 %136, i32* %6, align 4
  br label %23

137:                                              ; preds = %23
  br label %138

138:                                              ; preds = %137
  %139 = load i32, i32* %5, align 4
  %140 = add nsw i32 %139, 1
  store i32 %140, i32* %5, align 4
  br label %19

141:                                              ; preds = %19
  br label %142

142:                                              ; preds = %141
  %143 = load i32, i32* %4, align 4
  %144 = add nsw i32 %143, 1
  store i32 %144, i32* %4, align 4
  br label %15

145:                                              ; preds = %15
  br label %146

146:                                              ; preds = %145
  %147 = load i32, i32* %3, align 4
  %148 = add nsw i32 %147, 1
  store i32 %148, i32* %3, align 4
  br label %11

149:                                              ; preds = %11
  br label %150

150:                                              ; preds = %149
  %151 = load i32, i32* %2, align 4
  %152 = add nsw i32 %151, 1
  store i32 %152, i32* %2, align 4
  br label %7

153:                                              ; preds = %7
  ret i32 0
}

declare dso_local dereferenceable(272) %"class.std::basic_ostream"* @_ZStlsISt11char_traitsIcEERSt13basic_ostreamIcT_ES5_PKc(%"class.std::basic_ostream"* dereferenceable(272), i8*) #1

declare dso_local dereferenceable(272) %"class.std::basic_ostream"* @_ZNSolsEi(%"class.std::basic_ostream"*, i32) #1

; Function Attrs: noinline uwtable
define internal void @_GLOBAL__sub_I_880.cpp() #0 section ".text.startup" {
  call void @__cxx_global_var_init()
  ret void
}


!llvm.module.flags = !{!0}
!llvm.ident = !{!1}

!0 = !{i32 1, !"wchar_size", i32 4}
!1 = !{!"clang version 10.0.0-4ubuntu1 "}
